; Function Attrs: null_pointer_is_valid sspstrong uwtable
define internal noundef zeroext i1 @dissect_jxta_UDP_heur(ptr noundef %0, ptr noundef %1, ptr noundef %2, ptr readnone captures(none) %3) #0 {
  %5 = tail call i32 @tvb_strneql(ptr noundef %0, i32 noundef 0, ptr noundef nonnull @JXTA_UDP_SIG, i64 noundef 4)
  %.not = icmp eq i32 %5, 0
  br i1 %.not, label %6, label %12

6:                                                ; preds = %4
  %7 = getelementptr inbounds nuw i8, ptr %1, i64 332
  %8 = load i32, ptr %7, align 4
  %9 = getelementptr inbounds nuw i8, ptr %1, i64 336
  %10 = load i32, ptr %9, align 8
  %11 = tail call i32 @dissect_jxta_udp(ptr noundef %0, ptr noundef %1, ptr noundef %2, ptr poison)
  %or.cond = icmp slt i32 %11, 1
  br i1 %or.cond, label %.sink.split, label %12

.sink.split:                                      ; preds = %6
  store i32 %8, ptr %7, align 4
  store i32 %10, ptr %9, align 8
  br label %12

12:                                               ; preds = %6, %.sink.split, %4
  %.0 = phi i1 [ false, %4 ], [ false, %.sink.split ], [ true, %6 ]
  ret i1 %.0
}